target datalayout = "e-m:e-p270:32:32-p271:32:32-p272:64:64-i64:64-i128:128-f80:128-n8:16:32:64-S128"
target triple = "x86_64-unknown-linux-gnu"

%struct.IDEBus = type { %struct.BusState, ptr, ptr, [2 x %struct.IDEState], ptr, i32, i32, ptr, i8, i8, ptr, i32, i8, i64, i32, %struct.PortioList, %struct.PortioList, ptr }
%struct.BusState = type { %struct.Object, ptr, ptr, ptr, i32, i8, i8, i32, %union.BusChildHead, %struct.BusStateEntry, %struct.ResettableState }
%struct.Object = type { ptr, ptr, ptr, i32, ptr }
%union.BusChildHead = type { %struct.QTailQLink }
%struct.QTailQLink = type { ptr, ptr }
%struct.BusStateEntry = type { ptr, ptr }
%struct.ResettableState = type { i32, i8, i8 }
%struct.IDEState = type { ptr, i8, i32, i32, i32, i32, i32, i32, i32, i64, i32, i32, [512 x i8], i32, [21 x i8], [41 x i8], i64, i8, i8, i32, i8, i8, i8, i8, i8, i8, i8, i8, i8, i8, i8, i8, i8, ptr, [9 x i8], %struct.unreported_events, i8, i8, i8, i8, i8, i32, i32, i32, i32, i32, i32, %struct.BlockAcctCookie, ptr, %struct.QEMUIOVector, %struct.anon.1, i64, i32, %struct.QEMUSGList, i32, ptr, ptr, ptr, ptr, i32, i32, i32, i8, ptr, i32, i8, i32, ptr, i32, i32, i8, i8, i32, i8, ptr, i32 }
%struct.unreported_events = type { i8, i8 }
%struct.BlockAcctCookie = type { i64, i64, i32 }
%struct.QEMUIOVector = type { ptr, i32, %union.anon }
%union.anon = type { %struct.anon }
%struct.anon = type { i32, %struct.iovec }
%struct.iovec = type { ptr, i64 }
%struct.anon.1 = type { ptr }
%struct.QEMUSGList = type { ptr, i32, i32, i64, ptr, ptr }
%struct.PortioList = type { ptr, ptr, ptr, i32, ptr, ptr, ptr, i8 }

; Function Attrs: nounwind sspstrong uwtable
define dso_local i32 @ide_get_geometry(ptr noundef %bus, i32 noundef %unit, ptr noundef %cyls, ptr noundef %heads, ptr noundef %secs) #0 {
entry:
  %retval = alloca i32, align 4
  %bus.addr = alloca ptr, align 8
  %unit.addr = alloca i32, align 4
  %cyls.addr = alloca ptr, align 8
  %heads.addr = alloca ptr, align 8
  %secs.addr = alloca ptr, align 8
  %s = alloca ptr, align 8
  %tmp = alloca ptr, align 8
  %__mptr = alloca ptr, align 8
  %tmp1 = alloca ptr, align 8
  store ptr %bus, ptr %bus.addr, align 8
  store i32 %unit, ptr %unit.addr, align 4
  store ptr %cyls, ptr %cyls.addr, align 8
  store ptr %heads, ptr %heads.addr, align 8
  store ptr %secs, ptr %secs.addr, align 8
  %0 = load ptr, ptr %bus.addr, align 8
  store ptr %0, ptr %__mptr, align 8
  %1 = load ptr, ptr %__mptr, align 8
  %add.ptr = getelementptr i8, ptr %1, i64 0
  store ptr %add.ptr, ptr %tmp1, align 8
  %2 = load ptr, ptr %tmp1, align 8
  store ptr %2, ptr %tmp, align 8
  %3 = load ptr, ptr %tmp, align 8
  %ifs = getelementptr inbounds %struct.IDEBus, ptr %3, i32 0, i32 3
  %4 = load i32, ptr %unit.addr, align 4
  %idxprom = sext i32 %4 to i64
  %arrayidx = getelementptr [2 x %struct.IDEState], ptr %ifs, i64 0, i64 %idxprom
  store ptr %arrayidx, ptr %s, align 8
  %5 = load ptr, ptr %s, align 8
  %drive_kind = getelementptr inbounds %struct.IDEState, ptr %5, i32 0, i32 2
  %6 = load i32, ptr %drive_kind, align 4
  %cmp = icmp ne i32 %6, 0
  br i1 %cmp, label %if.then, label %lor.lhs.false

lor.lhs.false:                                    ; preds = %entry
  %7 = load ptr, ptr %s, align 8
  %blk = getelementptr inbounds %struct.IDEState, ptr %7, i32 0, i32 33
  %8 = load ptr, ptr %blk, align 8
  %tobool = icmp ne ptr %8, null
  br i1 %tobool, label %if.end, label %if.then

if.then:                                          ; preds = %lor.lhs.false, %entry
  store i32 -1, ptr %retval, align 4
  br label %return

if.end:                                           ; preds = %lor.lhs.false
  %9 = load ptr, ptr %s, align 8
  %cylinders = getelementptr inbounds %struct.IDEState, ptr %9, i32 0, i32 5
  %10 = load i32, ptr %cylinders, align 8
  %conv = trunc i32 %10 to i16
  %11 = load ptr, ptr %cyls.addr, align 8
  store i16 %conv, ptr %11, align 2
  %12 = load ptr, ptr %s, align 8
  %heads2 = getelementptr inbounds %struct.IDEState, ptr %12, i32 0, i32 6
  %13 = load i32, ptr %heads2, align 4
  %conv3 = trunc i32 %13 to i8
  %14 = load ptr, ptr %heads.addr, align 8
  store i8 %conv3, ptr %14, align 1
  %15 = load ptr, ptr %s, align 8
  %sectors = getelementptr inbounds %struct.IDEState, ptr %15, i32 0, i32 7
  %16 = load i32, ptr %sectors, align 8
  %conv4 = trunc i32 %16 to i8
  %17 = load ptr, ptr %secs.addr, align 8
  store i8 %conv4, ptr %17, align 1
  store i32 0, ptr %retval, align 4
  br label %return

return:                                           ; preds = %if.end, %if.then
  %18 = load i32, ptr %retval, align 4
  ret i32 %18
}