; Function Attrs: mustprogress nofree norecurse nosync nounwind sspstrong willreturn memory(argmem: readwrite) uwtable
define dso_local range(i32 -1, 1) i32 @ide_get_geometry(ptr noundef readonly captures(none) %bus, i32 noundef %unit, ptr noundef writeonly captures(none) %cyls, ptr noundef writeonly captures(none) %heads, ptr noundef writeonly captures(none) %secs) local_unnamed_addr #2 {
entry:
  %ifs = getelementptr inbounds nuw i8, ptr %bus, i64 136
  %idxprom = sext i32 %unit to i64
  %arrayidx = getelementptr [2 x %struct.IDEState], ptr %ifs, i64 0, i64 %idxprom
  %drive_kind = getelementptr inbounds nuw i8, ptr %arrayidx, i64 12
  %0 = load i32, ptr %drive_kind, align 4
  %cmp.not = icmp eq i32 %0, 0
  br i1 %cmp.not, label %lor.lhs.false, label %return

lor.lhs.false:                                    ; preds = %entry
  %blk = getelementptr inbounds nuw i8, ptr %arrayidx, i64 672
  %1 = load ptr, ptr %blk, align 8
  %tobool.not = icmp eq ptr %1, null
  br i1 %tobool.not, label %return, label %if.end

if.end:                                           ; preds = %lor.lhs.false
  %cylinders = getelementptr inbounds nuw i8, ptr %arrayidx, i64 24
  %2 = load i32, ptr %cylinders, align 8
  %conv = trunc i32 %2 to i16
  store i16 %conv, ptr %cyls, align 2
  %heads2 = getelementptr inbounds nuw i8, ptr %arrayidx, i64 28
  %3 = load i32, ptr %heads2, align 4
  %conv3 = trunc i32 %3 to i8
  store i8 %conv3, ptr %heads, align 1
  %sectors = getelementptr inbounds nuw i8, ptr %arrayidx, i64 32
  %4 = load i32, ptr %sectors, align 8
  %conv4 = trunc i32 %4 to i8
  store i8 %conv4, ptr %secs, align 1
  br label %return

return:                                           ; preds = %entry, %lor.lhs.false, %if.end
  %retval.0 = phi i32 [ 0, %if.end ], [ -1, %lor.lhs.false ], [ -1, %entry ]
  ret i32 %retval.0
}